target datalayout = "e-m:e-p270:32:32-p271:32:32-p272:64:64-i64:64-i128:128-f80:128-n8:16:32:64-S128"
target triple = "x86_64-pc-linux-gnu"

%"class.std::map" = type { %"class.std::_Rb_tree" }
%"class.std::_Rb_tree" = type { %"struct.std::_Rb_tree<unsigned int, std::pair<const unsigned int, llvm::MachineValueTypeSet>, std::_Select1st<std::pair<const unsigned int, llvm::MachineValueTypeSet>>, std::less<unsigned int>>::_Rb_tree_impl" }
%"struct.std::_Rb_tree<unsigned int, std::pair<const unsigned int, llvm::MachineValueTypeSet>, std::_Select1st<std::pair<const unsigned int, llvm::MachineValueTypeSet>>, std::less<unsigned int>>::_Rb_tree_impl" = type { [8 x i8], %"struct.std::_Rb_tree_header" }
%"struct.std::_Rb_tree_header" = type { %"struct.std::_Rb_tree_node_base", i64 }
%"struct.std::_Rb_tree_node_base" = type { i32, ptr, ptr, ptr }
%"struct.std::pair" = type { i32, %"struct.llvm::MachineValueTypeSet" }
%"struct.llvm::MachineValueTypeSet" = type { %"struct.std::array" }
%"struct.std::array" = type { [8 x i64] }
%"struct.std::_Rb_tree_const_iterator" = type { ptr }
%"struct.std::_Rb_tree_node.533" = type { %"struct.std::_Rb_tree_node_base", %"struct.__gnu_cxx::__aligned_membuf.534" }
%"struct.__gnu_cxx::__aligned_membuf.534" = type { [72 x i8] }

; Function Attrs: mustprogress nounwind uwtable
define linkonce_odr hidden noundef ptr @_ZNK9__gnu_cxx16__aligned_membufISt4pairIKjN4llvm19MachineValueTypeSetEEE7_M_addrEv(ptr noundef nonnull align 8 dereferenceable(72) %0) #0 comdat align 2 {
  %2 = alloca ptr, align 8
  store ptr %0, ptr %2, align 8
  %3 = load ptr, ptr %2, align 8
  %4 = getelementptr inbounds nuw %"struct.__gnu_cxx::__aligned_membuf.534", ptr %3, i32 0, i32 0
  ret ptr %4
}

; Function Attrs: mustprogress nounwind uwtable
define linkonce_odr hidden noundef ptr @_ZNSt14__array_traitsImLm8EE6_S_ptrERA8_Km(ptr noundef nonnull align 8 dereferenceable(64) %0) #0 comdat align 2 {
  %2 = alloca ptr, align 8
  store ptr %0, ptr %2, align 8
  %3 = load ptr, ptr %2, align 8
  %4 = getelementptr inbounds [8 x i64], ptr %3, i64 0, i64 0
  ret ptr %4
}

; Function Attrs: mustprogress nounwind uwtable
define linkonce_odr hidden noundef ptr @_ZNK9__gnu_cxx16__aligned_membufISt4pairIKjN4llvm19MachineValueTypeSetEEE6_M_ptrEv(ptr noundef nonnull align 8 dereferenceable(72) %0) #0 comdat align 2 {
  %2 = alloca ptr, align 8
  store ptr %0, ptr %2, align 8
  %3 = load ptr, ptr %2, align 8
  %4 = call noundef ptr @_ZNK9__gnu_cxx16__aligned_membufISt4pairIKjN4llvm19MachineValueTypeSetEEE7_M_addrEv(ptr noundef nonnull align 8 dereferenceable(72) %3) #4
  ret ptr %4
}

; Function Attrs: mustprogress nounwind uwtable
define linkonce_odr hidden void @_ZNSt23_Rb_tree_const_iteratorISt4pairIKjN4llvm19MachineValueTypeSetEEEC2EPKSt18_Rb_tree_node_base(ptr noundef nonnull align 8 dereferenceable(8) %0, ptr noundef %1) unnamed_addr #0 comdat align 2 {
  %3 = alloca ptr, align 8
  %4 = alloca ptr, align 8
  store ptr %0, ptr %3, align 8
  store ptr %1, ptr %4, align 8
  %5 = load ptr, ptr %3, align 8
  %6 = getelementptr inbounds nuw %"struct.std::_Rb_tree_const_iterator", ptr %5, i32 0, i32 0
  %7 = load ptr, ptr %4, align 8
  store ptr %7, ptr %6, align 8
  ret void
}

; Function Attrs: mustprogress nounwind uwtable
define linkonce_odr hidden noundef ptr @_ZNKSt5arrayImLm8EE4dataEv(ptr noundef nonnull align 8 dereferenceable(64) %0) #0 comdat align 2 {
  %2 = alloca ptr, align 8
  store ptr %0, ptr %2, align 8
  %3 = load ptr, ptr %2, align 8
  %4 = getelementptr inbounds nuw %"struct.std::array", ptr %3, i32 0, i32 0
  %5 = call noundef ptr @_ZNSt14__array_traitsImLm8EE6_S_ptrERA8_Km(ptr noundef nonnull align 8 dereferenceable(64) %4) #4
  ret ptr %5
}

; Function Attrs: mustprogress nounwind uwtable
define linkonce_odr hidden noundef ptr @_ZNKSt13_Rb_tree_nodeISt4pairIKjN4llvm19MachineValueTypeSetEEE9_M_valptrEv(ptr noundef nonnull align 8 dereferenceable(104) %0) #0 comdat align 2 {
  %2 = alloca ptr, align 8
  store ptr %0, ptr %2, align 8
  %3 = load ptr, ptr %2, align 8
  %4 = getelementptr inbounds nuw %"struct.std::_Rb_tree_node.533", ptr %3, i32 0, i32 1
  %5 = call noundef ptr @_ZNK9__gnu_cxx16__aligned_membufISt4pairIKjN4llvm19MachineValueTypeSetEEE6_M_ptrEv(ptr noundef nonnull align 8 dereferenceable(72) %4) #4
  ret ptr %5
}

; Function Attrs: mustprogress nounwind uwtable
define linkonce_odr hidden ptr @_ZNKSt8_Rb_treeIjSt4pairIKjN4llvm19MachineValueTypeSetEESt10_Select1stIS4_ESt4lessIjESaIS4_EE3endEv(ptr noundef nonnull align 8 dereferenceable(48) %0) #0 comdat align 2 {
  %2 = alloca %"struct.std::_Rb_tree_const_iterator", align 8
  %3 = alloca ptr, align 8
  store ptr %0, ptr %3, align 8
  %4 = load ptr, ptr %3, align 8
  %5 = getelementptr inbounds nuw %"class.std::_Rb_tree", ptr %4, i32 0, i32 0
  %6 = getelementptr inbounds i8, ptr %5, i64 8
  %7 = getelementptr inbounds nuw %"struct.std::_Rb_tree_header", ptr %6, i32 0, i32 0
  call void @_ZNSt23_Rb_tree_const_iteratorISt4pairIKjN4llvm19MachineValueTypeSetEEEC2EPKSt18_Rb_tree_node_base(ptr noundef nonnull align 8 dereferenceable(8) %2, ptr noundef %7) #4
  %8 = getelementptr inbounds nuw %"struct.std::_Rb_tree_const_iterator", ptr %2, i32 0, i32 0
  %9 = load ptr, ptr %8, align 8
  ret ptr %9
}

; Function Attrs: mustprogress nounwind uwtable
define linkonce_odr hidden ptr @_ZNKSt8_Rb_treeIjSt4pairIKjN4llvm19MachineValueTypeSetEESt10_Select1stIS4_ESt4lessIjESaIS4_EE5beginEv(ptr noundef nonnull align 8 dereferenceable(48) %0) #0 comdat align 2 {
  %2 = alloca %"struct.std::_Rb_tree_const_iterator", align 8
  %3 = alloca ptr, align 8
  store ptr %0, ptr %3, align 8
  %4 = load ptr, ptr %3, align 8
  %5 = getelementptr inbounds nuw %"class.std::_Rb_tree", ptr %4, i32 0, i32 0
  %6 = getelementptr inbounds i8, ptr %5, i64 8
  %7 = getelementptr inbounds nuw %"struct.std::_Rb_tree_header", ptr %6, i32 0, i32 0
  %8 = getelementptr inbounds nuw %"struct.std::_Rb_tree_node_base", ptr %7, i32 0, i32 2
  %9 = load ptr, ptr %8, align 8
  call void @_ZNSt23_Rb_tree_const_iteratorISt4pairIKjN4llvm19MachineValueTypeSetEEEC2EPKSt18_Rb_tree_node_base(ptr noundef nonnull align 8 dereferenceable(8) %2, ptr noundef %9) #4
  %10 = getelementptr inbounds nuw %"struct.std::_Rb_tree_const_iterator", ptr %2, i32 0, i32 0
  %11 = load ptr, ptr %10, align 8
  ret ptr %11
}

; Function Attrs: mustprogress nounwind uwtable
define linkonce_odr hidden noundef zeroext i1 @_ZNKSt8_Rb_treeIjSt4pairIKjN4llvm19MachineValueTypeSetEESt10_Select1stIS4_ESt4lessIjESaIS4_EE5emptyEv(ptr noundef nonnull align 8 dereferenceable(48) %0) #0 comdat align 2 {
  %2 = alloca ptr, align 8
  store ptr %0, ptr %2, align 8
  %3 = load ptr, ptr %2, align 8
  %4 = getelementptr inbounds nuw %"class.std::_Rb_tree", ptr %3, i32 0, i32 0
  %5 = getelementptr inbounds i8, ptr %4, i64 8
  %6 = getelementptr inbounds nuw %"struct.std::_Rb_tree_header", ptr %5, i32 0, i32 1
  %7 = load i64, ptr %6, align 8
  %8 = icmp eq i64 %7, 0
  ret i1 %8
}

; Function Attrs: mustprogress nounwind uwtable
define linkonce_odr hidden noundef nonnull align 8 dereferenceable(8) ptr @_ZNSt23_Rb_tree_const_iteratorISt4pairIKjN4llvm19MachineValueTypeSetEEEppEv(ptr noundef nonnull align 8 dereferenceable(8) %0) #0 comdat align 2 {
  %2 = alloca ptr, align 8
  store ptr %0, ptr %2, align 8
  %3 = load ptr, ptr %2, align 8
  %4 = getelementptr inbounds nuw %"struct.std::_Rb_tree_const_iterator", ptr %3, i32 0, i32 0
  %5 = load ptr, ptr %4, align 8
  %6 = call noundef ptr @_ZSt18_Rb_tree_incrementPKSt18_Rb_tree_node_base(ptr noundef %5) #14
  %7 = getelementptr inbounds nuw %"struct.std::_Rb_tree_const_iterator", ptr %3, i32 0, i32 0
  store ptr %6, ptr %7, align 8
  ret ptr %3
}

; Function Attrs: mustprogress nounwind uwtable
define linkonce_odr hidden noundef ptr @_ZNKSt5arrayImLm8EE3endEv(ptr noundef nonnull align 8 dereferenceable(64) %0) #0 comdat align 2 {
  %2 = alloca ptr, align 8
  store ptr %0, ptr %2, align 8
  %3 = load ptr, ptr %2, align 8
  %4 = call noundef ptr @_ZNKSt5arrayImLm8EE4dataEv(ptr noundef nonnull align 8 dereferenceable(64) %3) #4
  %5 = getelementptr inbounds i64, ptr %4, i64 8
  ret ptr %5
}

; Function Attrs: mustprogress nounwind uwtable
define linkonce_odr hidden noundef ptr @_ZNKSt5arrayImLm8EE5beginEv(ptr noundef nonnull align 8 dereferenceable(64) %0) #0 comdat align 2 {
  %2 = alloca ptr, align 8
  store ptr %0, ptr %2, align 8
  %3 = load ptr, ptr %2, align 8
  %4 = call noundef ptr @_ZNKSt5arrayImLm8EE4dataEv(ptr noundef nonnull align 8 dereferenceable(64) %3) #4
  ret ptr %4
}

; Function Attrs: mustprogress nounwind uwtable
define linkonce_odr hidden noundef nonnull align 8 dereferenceable(72) ptr @_ZNKSt23_Rb_tree_const_iteratorISt4pairIKjN4llvm19MachineValueTypeSetEEEdeEv(ptr noundef nonnull align 8 dereferenceable(8) %0) #0 comdat align 2 {
  %2 = alloca ptr, align 8
  store ptr %0, ptr %2, align 8
  %3 = load ptr, ptr %2, align 8
  %4 = getelementptr inbounds nuw %"struct.std::_Rb_tree_const_iterator", ptr %3, i32 0, i32 0
  %5 = load ptr, ptr %4, align 8
  %6 = call noundef ptr @_ZNKSt13_Rb_tree_nodeISt4pairIKjN4llvm19MachineValueTypeSetEEE9_M_valptrEv(ptr noundef nonnull align 8 dereferenceable(104) %5)
  ret ptr %6
}

; Function Attrs: mustprogress nounwind uwtable
define linkonce_odr noundef zeroext i1 @_ZStneRKSt23_Rb_tree_const_iteratorISt4pairIKjN4llvm19MachineValueTypeSetEEES7_(ptr noundef nonnull align 8 dereferenceable(8) %0, ptr noundef nonnull align 8 dereferenceable(8) %1) #0 comdat {
  %3 = alloca ptr, align 8
  %4 = alloca ptr, align 8
  store ptr %0, ptr %3, align 8
  store ptr %1, ptr %4, align 8
  %5 = load ptr, ptr %3, align 8
  %6 = getelementptr inbounds nuw %"struct.std::_Rb_tree_const_iterator", ptr %5, i32 0, i32 0
  %7 = load ptr, ptr %6, align 8
  %8 = load ptr, ptr %4, align 8
  %9 = getelementptr inbounds nuw %"struct.std::_Rb_tree_const_iterator", ptr %8, i32 0, i32 0
  %10 = load ptr, ptr %9, align 8
  %11 = icmp ne ptr %7, %10
  ret i1 %11
}

; Function Attrs: mustprogress nounwind uwtable
define linkonce_odr hidden ptr @_ZNKSt3mapIjN4llvm19MachineValueTypeSetESt4lessIjESaISt4pairIKjS1_EEE3endEv(ptr noundef nonnull align 8 dereferenceable(48) %0) #0 comdat align 2 {
  %2 = alloca %"struct.std::_Rb_tree_const_iterator", align 8
  %3 = alloca ptr, align 8
  store ptr %0, ptr %3, align 8
  %4 = load ptr, ptr %3, align 8
  %5 = getelementptr inbounds nuw %"class.std::map", ptr %4, i32 0, i32 0
  %6 = call ptr @_ZNKSt8_Rb_treeIjSt4pairIKjN4llvm19MachineValueTypeSetEESt10_Select1stIS4_ESt4lessIjESaIS4_EE3endEv(ptr noundef nonnull align 8 dereferenceable(48) %5) #4
  %7 = getelementptr inbounds nuw %"struct.std::_Rb_tree_const_iterator", ptr %2, i32 0, i32 0
  store ptr %6, ptr %7, align 8
  %8 = getelementptr inbounds nuw %"struct.std::_Rb_tree_const_iterator", ptr %2, i32 0, i32 0
  %9 = load ptr, ptr %8, align 8
  ret ptr %9
}

; Function Attrs: mustprogress nounwind uwtable
define linkonce_odr hidden ptr @_ZNKSt3mapIjN4llvm19MachineValueTypeSetESt4lessIjESaISt4pairIKjS1_EEE5beginEv(ptr noundef nonnull align 8 dereferenceable(48) %0) #0 comdat align 2 {
  %2 = alloca %"struct.std::_Rb_tree_const_iterator", align 8
  %3 = alloca ptr, align 8
  store ptr %0, ptr %3, align 8
  %4 = load ptr, ptr %3, align 8
  %5 = getelementptr inbounds nuw %"class.std::map", ptr %4, i32 0, i32 0
  %6 = call ptr @_ZNKSt8_Rb_treeIjSt4pairIKjN4llvm19MachineValueTypeSetEESt10_Select1stIS4_ESt4lessIjESaIS4_EE5beginEv(ptr noundef nonnull align 8 dereferenceable(48) %5) #4
  %7 = getelementptr inbounds nuw %"struct.std::_Rb_tree_const_iterator", ptr %2, i32 0, i32 0
  store ptr %6, ptr %7, align 8
  %8 = getelementptr inbounds nuw %"struct.std::_Rb_tree_const_iterator", ptr %2, i32 0, i32 0
  %9 = load ptr, ptr %8, align 8
  ret ptr %9
}

; Function Attrs: mustprogress nounwind uwtable
define linkonce_odr hidden noundef zeroext i1 @_ZNKSt3mapIjN4llvm19MachineValueTypeSetESt4lessIjESaISt4pairIKjS1_EEE5emptyEv(ptr noundef nonnull align 8 dereferenceable(48) %0) #0 comdat align 2 {
  %2 = alloca ptr, align 8
  store ptr %0, ptr %2, align 8
  %3 = load ptr, ptr %2, align 8
  %4 = getelementptr inbounds nuw %"class.std::map", ptr %3, i32 0, i32 0
  %5 = call noundef zeroext i1 @_ZNKSt8_Rb_treeIjSt4pairIKjN4llvm19MachineValueTypeSetEESt10_Select1stIS4_ESt4lessIjESaIS4_EE5emptyEv(ptr noundef nonnull align 8 dereferenceable(48) %4) #4
  ret i1 %5
}

; Function Attrs: mustprogress nounwind uwtable
define dso_local noundef zeroext i1 @_ZNK4llvm15TypeSetByHwMode8validateEv(ptr noundef nonnull align 8 dereferenceable(56) %0) #0 align 2 {
  %2 = alloca ptr, align 8
  %3 = alloca i1, align 1
  %4 = alloca ptr, align 8
  %5 = alloca ptr, align 8
  %6 = alloca ptr, align 8
  %7 = alloca ptr, align 8
  %8 = alloca i64, align 8
  %9 = alloca %"struct.std::_Rb_tree_const_iterator", align 8
  %10 = alloca ptr, align 8
  %11 = alloca %"struct.std::_Rb_tree_const_iterator", align 8
  %12 = alloca ptr, align 8
  %13 = alloca i1, align 1
  %14 = alloca ptr, align 8
  %15 = alloca i8, align 1
  %16 = alloca ptr, align 8
  %17 = alloca %"struct.std::_Rb_tree_const_iterator", align 8
  %18 = alloca %"struct.std::_Rb_tree_const_iterator", align 8
  %19 = alloca ptr, align 8
  store ptr %0, ptr %14, align 8
  %20 = load ptr, ptr %14, align 8
  store ptr %20, ptr %2, align 8
  %21 = load ptr, ptr %2, align 8
  %22 = call noundef zeroext i1 @_ZNKSt3mapIjN4llvm19MachineValueTypeSetESt4lessIjESaISt4pairIKjS1_EEE5emptyEv(ptr noundef nonnull align 8 dereferenceable(48) %21) #4
  br i1 %22, label %23, label %24

23:                                               ; preds = %1
  store i1 true, ptr %13, align 1
  br label %75

24:                                               ; preds = %1
  store i8 1, ptr %15, align 1
  store ptr %20, ptr %16, align 8
  %25 = load ptr, ptr %16, align 8
  store ptr %25, ptr %12, align 8
  %26 = load ptr, ptr %12, align 8
  %27 = call ptr @_ZNKSt3mapIjN4llvm19MachineValueTypeSetESt4lessIjESaISt4pairIKjS1_EEE5beginEv(ptr noundef nonnull align 8 dereferenceable(48) %26) #4
  store ptr %27, ptr %11, align 8
  %28 = load ptr, ptr %11, align 8
  %29 = getelementptr inbounds nuw %"struct.std::_Rb_tree_const_iterator", ptr %17, i32 0, i32 0
  store ptr %28, ptr %29, align 8
  %30 = load ptr, ptr %16, align 8
  store ptr %30, ptr %10, align 8
  %31 = load ptr, ptr %10, align 8
  %32 = call ptr @_ZNKSt3mapIjN4llvm19MachineValueTypeSetESt4lessIjESaISt4pairIKjS1_EEE3endEv(ptr noundef nonnull align 8 dereferenceable(48) %31) #4
  store ptr %32, ptr %9, align 8
  %33 = load ptr, ptr %9, align 8
  %34 = getelementptr inbounds nuw %"struct.std::_Rb_tree_const_iterator", ptr %18, i32 0, i32 0
  store ptr %33, ptr %34, align 8
  br label %35

35:                                               ; preds = %69, %24
  %36 = call noundef zeroext i1 @_ZStneRKSt23_Rb_tree_const_iteratorISt4pairIKjN4llvm19MachineValueTypeSetEEES7_(ptr noundef nonnull align 8 dereferenceable(8) %17, ptr noundef nonnull align 8 dereferenceable(8) %18) #4
  br i1 %36, label %37, label %71

37:                                               ; preds = %35
  %38 = call noundef nonnull align 8 dereferenceable(72) ptr @_ZNKSt23_Rb_tree_const_iteratorISt4pairIKjN4llvm19MachineValueTypeSetEEEdeEv(ptr noundef nonnull align 8 dereferenceable(8) %17) #4
  store ptr %38, ptr %19, align 8
  %39 = load ptr, ptr %19, align 8
  %40 = getelementptr inbounds nuw %"struct.std::pair", ptr %39, i32 0, i32 1
  store ptr %40, ptr %4, align 8
  %41 = load ptr, ptr %4, align 8
  store ptr %41, ptr %5, align 8
  %42 = load ptr, ptr %5, align 8
  %43 = call noundef ptr @_ZNKSt5arrayImLm8EE5beginEv(ptr noundef nonnull align 8 dereferenceable(64) %42) #4
  store ptr %43, ptr %6, align 8
  %44 = load ptr, ptr %5, align 8
  %45 = call noundef ptr @_ZNKSt5arrayImLm8EE3endEv(ptr noundef nonnull align 8 dereferenceable(64) %44) #4
  store ptr %45, ptr %7, align 8
  br label %46

46:                                               ; preds = %56, %37
  %47 = load ptr, ptr %6, align 8
  %48 = load ptr, ptr %7, align 8
  %49 = icmp ne ptr %47, %48
  br i1 %49, label %50, label %59

50:                                               ; preds = %46
  %51 = load ptr, ptr %6, align 8
  %52 = load i64, ptr %51, align 8
  store i64 %52, ptr %8, align 8
  %53 = load i64, ptr %8, align 8
  %54 = icmp ne i64 %53, 0
  br i1 %54, label %55, label %56

55:                                               ; preds = %50
  store i1 false, ptr %3, align 1
  br label %60

56:                                               ; preds = %50
  %57 = load ptr, ptr %6, align 8
  %58 = getelementptr inbounds i64, ptr %57, i32 1
  store ptr %58, ptr %6, align 8
  br label %46

59:                                               ; preds = %46
  store i1 true, ptr %3, align 1
  br label %60

60:                                               ; preds = %59, %55
  %61 = load i1, ptr %3, align 1
  %62 = zext i1 %61 to i32
  %63 = load i8, ptr %15, align 1
  %64 = trunc i8 %63 to i1
  %65 = zext i1 %64 to i32
  %66 = and i32 %65, %62
  %67 = icmp ne i32 %66, 0
  %68 = zext i1 %67 to i8
  store i8 %68, ptr %15, align 1
  br label %69

69:                                               ; preds = %60
  %70 = call noundef nonnull align 8 dereferenceable(8) ptr @_ZNSt23_Rb_tree_const_iteratorISt4pairIKjN4llvm19MachineValueTypeSetEEEppEv(ptr noundef nonnull align 8 dereferenceable(8) %17) #4
  br label %35

71:                                               ; preds = %35
  %72 = load i8, ptr %15, align 1
  %73 = trunc i8 %72 to i1
  %74 = xor i1 %73, true
  store i1 %74, ptr %13, align 1
  br label %75

75:                                               ; preds = %71, %23
  %76 = load i1, ptr %13, align 1
  ret i1 %76
}