; Function Attrs: mustprogress nofree nounwind willreturn memory(read) uwtable
define dso_local noundef zeroext i1 @_ZNK4llvm15TypeSetByHwMode8validateEv(ptr noundef nonnull readonly align 8 dereferenceable(56) %0) local_unnamed_addr #3 align 2 {
  %2 = getelementptr inbounds i8, ptr %0, i64 40
  %3 = load i64, ptr %2, align 8
  %4 = icmp eq i64 %3, 0
  br i1 %4, label %._crit_edge, label %5

5:                                                ; preds = %1
  %6 = getelementptr inbounds i8, ptr %0, i64 24
  %7 = load ptr, ptr %6, align 8
  %8 = getelementptr inbounds i8, ptr %0, i64 8
  %.not2630 = icmp eq ptr %7, %8
  br i1 %.not2630, label %._crit_edge, label %.preheader

.preheader:                                       ; preds = %5, %11
  %.02032 = phi i1 [ %12, %11 ], [ true, %5 ]
  %.sroa.023.031 = phi ptr [ %13, %11 ], [ %7, %5 ]
  br label %9

9:                                                ; preds = %9, %.preheader
  %.019.idx28 = phi i64 [ 40, %.preheader ], [ %.019.add, %9 ]
  %.019.ptr = getelementptr inbounds i8, ptr %.sroa.023.031, i64 %.019.idx28
  %10 = load i64, ptr %.019.ptr, align 8
  %.not22 = icmp eq i64 %10, 0
  %.019.add = add nuw nsw i64 %.019.idx28, 8
  %.not = icmp ne i64 %.019.add, 104
  %or.cond.not = select i1 %.not22, i1 %.not, i1 false
  br i1 %or.cond.not, label %9, label %11

11:                                               ; preds = %9
  %12 = and i1 %.02032, %.not22
  %13 = tail call noundef ptr @_ZSt18_Rb_tree_incrementPKSt18_Rb_tree_node_base(ptr noundef nonnull %.sroa.023.031) #30
  %.not26 = icmp eq ptr %13, %8
  br i1 %.not26, label %._crit_edge.loopexit, label %.preheader

._crit_edge.loopexit:                             ; preds = %11
  %14 = xor i1 %12, true
  br label %._crit_edge

._crit_edge:                                      ; preds = %5, %._crit_edge.loopexit, %1
  %.021 = phi i1 [ true, %1 ], [ false, %5 ], [ %14, %._crit_edge.loopexit ]
  ret i1 %.021
}